target datalayout = "e-m:e-p270:32:32-p271:32:32-p272:64:64-i64:64-i128:128-f80:128-n8:16:32:64-S128"
target triple = "x86_64-pc-linux-gnu"

%"class.clang::FileEntryRef" = type { ptr }

; Function Attrs: mustprogress nounwind uwtable
define internal void @_ZL29mergeHeaderFileInfoModuleBitsRN5clang14HeaderFileInfoEbb(ptr noundef nonnull align 8 dereferenceable(32) %0, i1 noundef zeroext %1, i1 noundef zeroext %2) #0 {
  %4 = alloca ptr, align 8
  %5 = alloca i8, align 1
  %6 = alloca i8, align 1
  store ptr %0, ptr %4, align 8
  %7 = zext i1 %1 to i8
  store i8 %7, ptr %5, align 1
  %8 = zext i1 %2 to i8
  store i8 %8, ptr %6, align 1
  %9 = load i8, ptr %5, align 1
  %10 = trunc i8 %9 to i1
  %11 = zext i1 %10 to i32
  %12 = load ptr, ptr %4, align 8
  %13 = load i16, ptr %12, align 8
  %14 = lshr i16 %13, 7
  %15 = and i16 %14, 1
  %16 = zext i16 %15 to i32
  %17 = or i32 %16, %11
  %18 = trunc i32 %17 to i16
  %19 = load i16, ptr %12, align 8
  %20 = and i16 %18, 1
  %21 = shl i16 %20, 7
  %22 = and i16 %19, -129
  %23 = or i16 %22, %21
  store i16 %23, ptr %12, align 8
  %24 = load ptr, ptr %4, align 8
  %25 = load i16, ptr %24, align 8
  %26 = lshr i16 %25, 7
  %27 = and i16 %26, 1
  %28 = zext i16 %27 to i32
  %29 = icmp ne i32 %28, 0
  br i1 %29, label %30, label %35

30:                                               ; preds = %3
  %31 = load ptr, ptr %4, align 8
  %32 = load i16, ptr %31, align 8
  %33 = and i16 %32, -257
  %34 = or i16 %33, 0
  store i16 %34, ptr %31, align 8
  br label %51

35:                                               ; preds = %3
  %36 = load i8, ptr %6, align 1
  %37 = trunc i8 %36 to i1
  %38 = zext i1 %37 to i32
  %39 = load ptr, ptr %4, align 8
  %40 = load i16, ptr %39, align 8
  %41 = lshr i16 %40, 8
  %42 = and i16 %41, 1
  %43 = zext i16 %42 to i32
  %44 = or i32 %43, %38
  %45 = trunc i32 %44 to i16
  %46 = load i16, ptr %39, align 8
  %47 = and i16 %45, 1
  %48 = shl i16 %47, 8
  %49 = and i16 %46, -257
  %50 = or i16 %49, %48
  store i16 %50, ptr %39, align 8
  br label %51

51:                                               ; preds = %35, %30
  ret void
}

; Function Attrs: mustprogress nounwind uwtable
define dso_local void @_ZN5clang14HeaderFileInfo21mergeModuleMembershipENS_9ModuleMap16ModuleHeaderRoleE(ptr noundef nonnull align 8 dereferenceable(32) %0, i32 noundef %1) #0 align 2 {
  %3 = alloca ptr, align 8
  %4 = alloca i32, align 4
  store ptr %0, ptr %3, align 8
  store i32 %1, ptr %4, align 4
  %5 = load ptr, ptr %3, align 8
  %6 = load i32, ptr %4, align 4
  %7 = call noundef zeroext i1 @_ZN5clang9ModuleMap9isModularENS0_16ModuleHeaderRoleE(i32 noundef %6)
  %8 = load i32, ptr %4, align 4
  %9 = and i32 %8, 2
  %10 = icmp ne i32 %9, 0
  call void @_ZL29mergeHeaderFileInfoModuleBitsRN5clang14HeaderFileInfoEbb(ptr noundef nonnull align 8 dereferenceable(32) %5, i1 noundef zeroext %7, i1 noundef zeroext %10)
  ret void
}

; Function Attrs: mustprogress nounwind uwtable
define internal noundef zeroext i1 @_ZL26moduleMembershipNeedsMergePKN5clang14HeaderFileInfoENS_9ModuleMap16ModuleHeaderRoleE(ptr noundef %0, i32 noundef %1) #0 {
  %3 = alloca i1, align 1
  %4 = alloca ptr, align 8
  %5 = alloca i32, align 4
  store ptr %0, ptr %4, align 8
  store i32 %1, ptr %5, align 4
  %6 = load i32, ptr %5, align 4
  %7 = call noundef zeroext i1 @_ZN5clang9ModuleMap9isModularENS0_16ModuleHeaderRoleE(i32 noundef %6)
  br i1 %7, label %8, label %24

8:                                                ; preds = %2
  %9 = load ptr, ptr %4, align 8
  %10 = load i16, ptr %9, align 8
  %11 = lshr i16 %10, 7
  %12 = and i16 %11, 1
  %13 = zext i16 %12 to i32
  %14 = icmp ne i32 %13, 0
  br i1 %14, label %15, label %22

15:                                               ; preds = %8
  %16 = load ptr, ptr %4, align 8
  %17 = load i16, ptr %16, align 8
  %18 = lshr i16 %17, 8
  %19 = and i16 %18, 1
  %20 = zext i16 %19 to i32
  %21 = icmp ne i32 %20, 0
  br label %22

22:                                               ; preds = %15, %8
  %23 = phi i1 [ true, %8 ], [ %21, %15 ]
  store i1 %23, ptr %3, align 1
  br label %44

24:                                               ; preds = %2
  %25 = load ptr, ptr %4, align 8
  %26 = load i16, ptr %25, align 8
  %27 = lshr i16 %26, 7
  %28 = and i16 %27, 1
  %29 = zext i16 %28 to i32
  %30 = icmp ne i32 %29, 0
  br i1 %30, label %43, label %31

31:                                               ; preds = %24
  %32 = load i32, ptr %5, align 4
  %33 = and i32 %32, 2
  %34 = icmp ne i32 %33, 0
  br i1 %34, label %35, label %43

35:                                               ; preds = %31
  %36 = load ptr, ptr %4, align 8
  %37 = load i16, ptr %36, align 8
  %38 = lshr i16 %37, 8
  %39 = and i16 %38, 1
  %40 = zext i16 %39 to i32
  %41 = icmp ne i32 %40, 0
  %42 = xor i1 %41, true
  store i1 %42, ptr %3, align 1
  br label %44

43:                                               ; preds = %31, %24
  store i1 false, ptr %3, align 1
  br label %44

44:                                               ; preds = %43, %35, %22
  %45 = load i1, ptr %3, align 1
  ret i1 %45
}

; Function Attrs: mustprogress nounwind uwtable
define dso_local void @_ZN5clang12HeaderSearch20MarkFileModuleHeaderENS_12FileEntryRefENS_9ModuleMap16ModuleHeaderRoleEb(ptr noundef nonnull align 8 dereferenceable(2192) %0, ptr %1, i32 noundef %2, i1 noundef zeroext %3) #0 align 2 {
  %5 = alloca %"class.clang::FileEntryRef", align 8
  %6 = alloca ptr, align 8
  %7 = alloca i32, align 4
  %8 = alloca i8, align 1
  %9 = alloca ptr, align 8
  %10 = alloca %"class.clang::FileEntryRef", align 8
  %11 = alloca ptr, align 8
  %12 = alloca %"class.clang::FileEntryRef", align 8
  %13 = getelementptr inbounds nuw %"class.clang::FileEntryRef", ptr %5, i32 0, i32 0
  store ptr %1, ptr %13, align 8
  store ptr %0, ptr %6, align 8
  store i32 %2, ptr %7, align 4
  %14 = zext i1 %3 to i8
  store i8 %14, ptr %8, align 1
  %15 = load ptr, ptr %6, align 8
  %16 = load i8, ptr %8, align 1
  %17 = trunc i8 %16 to i1
  br i1 %17, label %35, label %18

18:                                               ; preds = %4
  %19 = load i32, ptr %7, align 4
  %20 = and i32 %19, 4
  %21 = icmp ne i32 %20, 0
  br i1 %21, label %22, label %23

22:                                               ; preds = %18
  br label %56

23:                                               ; preds = %18
  call void @llvm.memcpy.p0.p0.i64(ptr align 8 %10, ptr align 8 %5, i64 8, i1 false)
  %24 = getelementptr inbounds nuw %"class.clang::FileEntryRef", ptr %10, i32 0, i32 0
  %25 = load ptr, ptr %24, align 8
  %26 = call noundef ptr @_ZNK5clang12HeaderSearch19getExistingFileInfoENS_12FileEntryRefE(ptr noundef nonnull align 8 dereferenceable(2192) %15, ptr %25)
  store ptr %26, ptr %9, align 8
  %27 = load ptr, ptr %9, align 8
  %28 = icmp ne ptr %27, null
  br i1 %28, label %29, label %34

29:                                               ; preds = %23
  %30 = load ptr, ptr %9, align 8
  %31 = load i32, ptr %7, align 4
  %32 = call noundef zeroext i1 @_ZL26moduleMembershipNeedsMergePKN5clang14HeaderFileInfoENS_9ModuleMap16ModuleHeaderRoleE(ptr noundef %30, i32 noundef %31)
  br i1 %32, label %34, label %33

33:                                               ; preds = %29
  br label %56

34:                                               ; preds = %29, %23
  br label %35

35:                                               ; preds = %34, %4
  call void @llvm.memcpy.p0.p0.i64(ptr align 8 %12, ptr align 8 %5, i64 8, i1 false)
  %36 = getelementptr inbounds nuw %"class.clang::FileEntryRef", ptr %12, i32 0, i32 0
  %37 = load ptr, ptr %36, align 8
  %38 = call noundef nonnull align 8 dereferenceable(32) ptr @_ZN5clang12HeaderSearch11getFileInfoENS_12FileEntryRefE(ptr noundef nonnull align 8 dereferenceable(2192) %15, ptr %37)
  store ptr %38, ptr %11, align 8
  %39 = load ptr, ptr %11, align 8
  %40 = load i32, ptr %7, align 4
  call void @_ZN5clang14HeaderFileInfo21mergeModuleMembershipENS_9ModuleMap16ModuleHeaderRoleE(ptr noundef nonnull align 8 dereferenceable(32) %39, i32 noundef %40)
  %41 = load i8, ptr %8, align 1
  %42 = trunc i8 %41 to i1
  %43 = zext i1 %42 to i32
  %44 = load ptr, ptr %11, align 8
  %45 = load i16, ptr %44, align 8
  %46 = lshr i16 %45, 9
  %47 = and i16 %46, 1
  %48 = zext i16 %47 to i32
  %49 = or i32 %48, %43
  %50 = trunc i32 %49 to i16
  %51 = load i16, ptr %44, align 8
  %52 = and i16 %50, 1
  %53 = shl i16 %52, 9
  %54 = and i16 %51, -513
  %55 = or i16 %54, %53
  store i16 %55, ptr %44, align 8
  br label %56

56:                                               ; preds = %35, %33, %22
  ret void
}