; Function Attrs: mustprogress nounwind uwtable
define dso_local void @_ZN5clang12HeaderSearch20MarkFileModuleHeaderENS_12FileEntryRefENS_9ModuleMap16ModuleHeaderRoleEb(ptr noundef nonnull align 8 dereferenceable(2192) %0, ptr %1, i32 noundef %2, i1 noundef zeroext %3) local_unnamed_addr #0 align 2 {
  br i1 %3, label %18, label %5

5:                                                ; preds = %4
  %6 = and i32 %2, 4
  %.not = icmp eq i32 %6, 0
  br i1 %.not, label %7, label %_ZL26moduleMembershipNeedsMergePKN5clang14HeaderFileInfoENS_9ModuleMap16ModuleHeaderRoleE.exit.thread

7:                                                ; preds = %5
  %8 = tail call noundef ptr @_ZNK5clang12HeaderSearch19getExistingFileInfoENS_12FileEntryRefE(ptr noundef nonnull align 8 dereferenceable(2192) %0, ptr %1)
  %.not11 = icmp eq ptr %8, null
  br i1 %.not11, label %18, label %9

9:                                                ; preds = %7
  %10 = tail call noundef zeroext i1 @_ZN5clang9ModuleMap9isModularENS0_16ModuleHeaderRoleE(i32 noundef %2) #22
  %11 = load i16, ptr %8, align 8
  br i1 %10, label %12, label %14

12:                                               ; preds = %9
  %13 = and i16 %11, 384
  %.not14 = icmp eq i16 %13, 128
  br i1 %.not14, label %_ZL26moduleMembershipNeedsMergePKN5clang14HeaderFileInfoENS_9ModuleMap16ModuleHeaderRoleE.exit.thread, label %18

14:                                               ; preds = %9
  %15 = and i16 %11, 128
  %.not.i = icmp eq i16 %15, 0
  %16 = and i32 %2, 2
  %.not6.i = icmp ne i32 %16, 0
  %or.cond.i.not13 = and i1 %.not6.i, %.not.i
  %17 = and i16 %11, 256
  %.not7.i = icmp eq i16 %17, 0
  %or.cond = select i1 %or.cond.i.not13, i1 %.not7.i, i1 false
  br i1 %or.cond, label %18, label %_ZL26moduleMembershipNeedsMergePKN5clang14HeaderFileInfoENS_9ModuleMap16ModuleHeaderRoleE.exit.thread

18:                                               ; preds = %14, %12, %7, %4
  %19 = tail call noundef nonnull align 8 dereferenceable(32) ptr @_ZN5clang12HeaderSearch11getFileInfoENS_12FileEntryRefE(ptr noundef nonnull align 8 dereferenceable(2192) %0, ptr %1)
  %20 = tail call noundef zeroext i1 @_ZN5clang9ModuleMap9isModularENS0_16ModuleHeaderRoleE(i32 noundef %2) #22
  %21 = load i16, ptr %19, align 8
  %22 = and i16 %21, 128
  %.tr.i.i = icmp ne i16 %22, 0
  %.narrow.i.i = or i1 %20, %.tr.i.i
  %23 = select i1 %.narrow.i.i, i16 128, i16 0
  %24 = and i16 %21, -129
  %25 = or disjoint i16 %23, %24
  br i1 %.narrow.i.i, label %26, label %28

26:                                               ; preds = %18
  %27 = and i16 %25, -257
  br label %_ZN5clang14HeaderFileInfo21mergeModuleMembershipENS_9ModuleMap16ModuleHeaderRoleE.exit

28:                                               ; preds = %18
  %29 = and i32 %2, 2
  %30 = icmp ne i32 %29, 0
  %31 = and i16 %21, 256
  %.tr5.i.i = icmp ne i16 %31, 0
  %.narrow6.i.i = or i1 %30, %.tr5.i.i
  %32 = select i1 %.narrow6.i.i, i16 256, i16 0
  %33 = and i16 %25, -257
  %34 = or disjoint i16 %33, %32
  br label %_ZN5clang14HeaderFileInfo21mergeModuleMembershipENS_9ModuleMap16ModuleHeaderRoleE.exit

_ZN5clang14HeaderFileInfo21mergeModuleMembershipENS_9ModuleMap16ModuleHeaderRoleE.exit: ; preds = %26, %28
  %storemerge.i.i = phi i16 [ %34, %28 ], [ %27, %26 ]
  %35 = and i16 %storemerge.i.i, 512
  %.tr = icmp ne i16 %35, 0
  %.narrow = or i1 %3, %.tr
  %36 = select i1 %.narrow, i16 512, i16 0
  %37 = and i16 %storemerge.i.i, -513
  %38 = or disjoint i16 %36, %37
  store i16 %38, ptr %19, align 8
  br label %_ZL26moduleMembershipNeedsMergePKN5clang14HeaderFileInfoENS_9ModuleMap16ModuleHeaderRoleE.exit.thread

_ZL26moduleMembershipNeedsMergePKN5clang14HeaderFileInfoENS_9ModuleMap16ModuleHeaderRoleE.exit.thread: ; preds = %14, %12, %5, %_ZN5clang14HeaderFileInfo21mergeModuleMembershipENS_9ModuleMap16ModuleHeaderRoleE.exit
  ret void
}